target datalayout = "e-m:e-p270:32:32-p271:32:32-p272:64:64-i64:64-i128:128-f80:128-n8:16:32:64-S128"
target triple = "x86_64-pc-linux-gnu"

; Function Attrs: nounwind uwtable
define i32 @h5tools_detect_vlen(i64 noundef %0) #0 {
  %2 = alloca i64, align 8
  %3 = alloca i32, align 4
  store i64 %0, ptr %2, align 8, !tbaa !7
  call void @llvm.lifetime.start.p0(i64 4, ptr %3) #10
  store i32 0, ptr %3, align 4, !tbaa !3
  %4 = load i64, ptr %2, align 8, !tbaa !7
  %5 = call i32 @H5Tdetect_class(i64 noundef %4, i32 noundef 9)
  store i32 %5, ptr %3, align 4, !tbaa !3
  %6 = load i32, ptr %3, align 4, !tbaa !3
  %7 = icmp eq i32 %6, 1
  br i1 %7, label %11, label %8

8:                                                ; preds = %1
  %9 = load i32, ptr %3, align 4, !tbaa !3
  %10 = icmp slt i32 %9, 0
  br i1 %10, label %11, label %12

11:                                               ; preds = %8, %1
  br label %22

12:                                               ; preds = %8
  %13 = load i64, ptr %2, align 8, !tbaa !7
  %14 = call i32 @h5tools_detect_vlen_str(i64 noundef %13)
  store i32 %14, ptr %3, align 4, !tbaa !3
  %15 = load i32, ptr %3, align 4, !tbaa !3
  %16 = icmp eq i32 %15, 1
  br i1 %16, label %20, label %17

17:                                               ; preds = %12
  %18 = load i32, ptr %3, align 4, !tbaa !3
  %19 = icmp slt i32 %18, 0
  br i1 %19, label %20, label %21

20:                                               ; preds = %17, %12
  br label %22

21:                                               ; preds = %17
  br label %22

22:                                               ; preds = %21, %20, %11
  %23 = load i32, ptr %3, align 4, !tbaa !3
  call void @llvm.lifetime.end.p0(i64 4, ptr %3) #10
  ret i32 %23
}