; Function Attrs: nounwind uwtable
define i32 @h5tools_detect_vlen(i64 noundef %0) local_unnamed_addr #0 {
  %2 = tail call i32 @H5Tdetect_class(i64 noundef %0, i32 noundef 9) #16
  %3 = icmp eq i32 %2, 1
  %4 = icmp slt i32 %2, 0
  %or.cond = or i1 %3, %4
  br i1 %or.cond, label %7, label %5

5:                                                ; preds = %1
  %6 = tail call i32 @h5tools_detect_vlen_str(i64 noundef %0)
  br label %7

7:                                                ; preds = %5, %1
  %.0 = phi i32 [ %2, %1 ], [ %6, %5 ]
  ret i32 %.0
}